target datalayout = "e-m:e-p270:32:32-p271:32:32-p272:64:64-i64:64-i128:128-f80:128-n8:16:32:64-S128"
target triple = "x86_64-pc-linux-gnu"

%struct.RepeatInfo = type { i8, i32, i32, i32, i32, i32, i32, [2 x i32], i32, i32, i32, i32, i32 }
%struct.RepeatRangeControl = type { i64, i8 }
%struct.unaligned = type { i16 }

; Function Attrs: alwaysinline nounwind uwtable
define internal zeroext i16 @unaligned_load_u16(ptr noundef %0) #2 {
  %2 = alloca ptr, align 8
  %3 = alloca ptr, align 8
  store ptr %0, ptr %2, align 8
  call void @llvm.lifetime.start.p0(i64 8, ptr %3) #7
  %4 = load ptr, ptr %2, align 8
  store ptr %4, ptr %3, align 8
  %5 = load ptr, ptr %3, align 8
  %6 = getelementptr inbounds nuw %struct.unaligned, ptr %5, i32 0, i32 0
  %7 = load i16, ptr %6, align 1
  call void @llvm.lifetime.end.p0(i64 8, ptr %3) #7
  ret i16 %7
}

; Function Attrs: nounwind uwtable
define hidden i32 @repeatHasMatchRange(ptr noundef %0, ptr noundef %1, ptr noundef %2, i64 noundef %3) #0 {
  %5 = alloca i32, align 4
  %6 = alloca ptr, align 8
  %7 = alloca ptr, align 8
  %8 = alloca ptr, align 8
  %9 = alloca i64, align 8
  %10 = alloca ptr, align 8
  %11 = alloca ptr, align 8
  %12 = alloca i32, align 4
  %13 = alloca i64, align 8
  %14 = alloca i64, align 8
  %15 = alloca i32, align 4
  %16 = alloca i32, align 4
  store ptr %0, ptr %6, align 8
  store ptr %1, ptr %7, align 8
  store ptr %2, ptr %8, align 8
  store i64 %3, ptr %9, align 8
  call void @llvm.lifetime.start.p0(i64 8, ptr %10) #7
  %17 = load ptr, ptr %7, align 8
  store ptr %17, ptr %10, align 8
  call void @llvm.lifetime.start.p0(i64 8, ptr %11) #7
  %18 = load ptr, ptr %8, align 8
  store ptr %18, ptr %11, align 8
  br label %19

19:                                               ; preds = %4
  br label %20

20:                                               ; preds = %19
  br label %21

21:                                               ; preds = %20
  %22 = load i64, ptr %9, align 8
  %23 = load ptr, ptr %10, align 8
  %24 = getelementptr inbounds nuw %struct.RepeatRangeControl, ptr %23, i32 0, i32 0
  %25 = load i64, ptr %24, align 8
  %26 = sub i64 %22, %25
  %27 = load ptr, ptr %6, align 8
  %28 = getelementptr inbounds nuw %struct.RepeatInfo, ptr %27, i32 0, i32 1
  %29 = load i32, ptr %28, align 4
  %30 = zext i32 %29 to i64
  %31 = icmp ult i64 %26, %30
  br i1 %31, label %32, label %36

32:                                               ; preds = %21
  br label %33

33:                                               ; preds = %32
  br label %34

34:                                               ; preds = %33
  br label %35

35:                                               ; preds = %34
  store i32 0, ptr %5, align 4
  store i32 1, ptr %12, align 4
  br label %128

36:                                               ; preds = %21
  call void @llvm.lifetime.start.p0(i64 8, ptr %13) #7
  %37 = load ptr, ptr %10, align 8
  %38 = getelementptr inbounds nuw %struct.RepeatRangeControl, ptr %37, i32 0, i32 0
  %39 = load i64, ptr %38, align 8
  %40 = load ptr, ptr %11, align 8
  %41 = load ptr, ptr %10, align 8
  %42 = getelementptr inbounds nuw %struct.RepeatRangeControl, ptr %41, i32 0, i32 1
  %43 = load i8, ptr %42, align 8
  %44 = zext i8 %43 to i32
  %45 = sext i32 %44 to i64
  %46 = getelementptr inbounds i16, ptr %40, i64 %45
  %47 = getelementptr inbounds i16, ptr %46, i64 -1
  %48 = call zeroext i16 @unaligned_load_u16(ptr noundef %47)
  %49 = zext i16 %48 to i64
  %50 = add i64 %39, %49
  store i64 %50, ptr %13, align 8
  call void @llvm.lifetime.start.p0(i64 8, ptr %14) #7
  %51 = load i64, ptr %9, align 8
  %52 = load i64, ptr %13, align 8
  %53 = sub i64 %51, %52
  store i64 %53, ptr %14, align 8
  %54 = load i64, ptr %14, align 8
  %55 = load ptr, ptr %6, align 8
  %56 = getelementptr inbounds nuw %struct.RepeatInfo, ptr %55, i32 0, i32 2
  %57 = load i32, ptr %56, align 4
  %58 = zext i32 %57 to i64
  %59 = icmp ugt i64 %54, %58
  br i1 %59, label %60, label %64

60:                                               ; preds = %36
  br label %61

61:                                               ; preds = %60
  br label %62

62:                                               ; preds = %61
  br label %63

63:                                               ; preds = %62
  store i32 2, ptr %5, align 4
  store i32 1, ptr %12, align 4
  br label %127

64:                                               ; preds = %36
  %65 = load i64, ptr %14, align 8
  %66 = load ptr, ptr %6, align 8
  %67 = getelementptr inbounds nuw %struct.RepeatInfo, ptr %66, i32 0, i32 1
  %68 = load i32, ptr %67, align 4
  %69 = zext i32 %68 to i64
  %70 = icmp uge i64 %65, %69
  br i1 %70, label %71, label %79

71:                                               ; preds = %64
  %72 = load i64, ptr %14, align 8
  %73 = load ptr, ptr %6, align 8
  %74 = getelementptr inbounds nuw %struct.RepeatInfo, ptr %73, i32 0, i32 2
  %75 = load i32, ptr %74, align 4
  %76 = zext i32 %75 to i64
  %77 = icmp ule i64 %72, %76
  br i1 %77, label %78, label %79

78:                                               ; preds = %71
  store i32 1, ptr %5, align 4
  store i32 1, ptr %12, align 4
  br label %127

79:                                               ; preds = %71, %64
  br label %80

80:                                               ; preds = %79
  call void @llvm.lifetime.start.p0(i64 4, ptr %15) #7
  %81 = load ptr, ptr %10, align 8
  %82 = getelementptr inbounds nuw %struct.RepeatRangeControl, ptr %81, i32 0, i32 1
  %83 = load i8, ptr %82, align 8
  %84 = zext i8 %83 to i32
  %85 = sub nsw i32 %84, 1
  store i32 %85, ptr %15, align 4
  call void @llvm.lifetime.start.p0(i64 4, ptr %16) #7
  store i32 0, ptr %16, align 4
  br label %86

86:                                               ; preds = %120, %80
  %87 = load i32, ptr %16, align 4
  %88 = load i32, ptr %15, align 4
  %89 = icmp ult i32 %87, %88
  br i1 %89, label %91, label %90

90:                                               ; preds = %86
  store i32 8, ptr %12, align 4
  br label %123

91:                                               ; preds = %86
  %92 = load ptr, ptr %10, align 8
  %93 = getelementptr inbounds nuw %struct.RepeatRangeControl, ptr %92, i32 0, i32 0
  %94 = load i64, ptr %93, align 8
  %95 = load ptr, ptr %11, align 8
  %96 = load i32, ptr %16, align 4
  %97 = zext i32 %96 to i64
  %98 = getelementptr inbounds nuw i16, ptr %95, i64 %97
  %99 = call zeroext i16 @unaligned_load_u16(ptr noundef %98)
  %100 = zext i16 %99 to i64
  %101 = add i64 %94, %100
  store i64 %101, ptr %13, align 8
  %102 = load i64, ptr %9, align 8
  %103 = load i64, ptr %13, align 8
  %104 = sub i64 %102, %103
  store i64 %104, ptr %14, align 8
  %105 = load i64, ptr %14, align 8
  %106 = load ptr, ptr %6, align 8
  %107 = getelementptr inbounds nuw %struct.RepeatInfo, ptr %106, i32 0, i32 1
  %108 = load i32, ptr %107, align 4
  %109 = zext i32 %108 to i64
  %110 = icmp uge i64 %105, %109
  br i1 %110, label %111, label %119

111:                                              ; preds = %91
  %112 = load i64, ptr %14, align 8
  %113 = load ptr, ptr %6, align 8
  %114 = getelementptr inbounds nuw %struct.RepeatInfo, ptr %113, i32 0, i32 2
  %115 = load i32, ptr %114, align 4
  %116 = zext i32 %115 to i64
  %117 = icmp ule i64 %112, %116
  br i1 %117, label %118, label %119

118:                                              ; preds = %111
  store i32 1, ptr %5, align 4
  store i32 1, ptr %12, align 4
  br label %123

119:                                              ; preds = %111, %91
  br label %120

120:                                              ; preds = %119
  %121 = load i32, ptr %16, align 4
  %122 = add i32 %121, 1
  store i32 %122, ptr %16, align 4
  br label %86

123:                                              ; preds = %118, %90
  call void @llvm.lifetime.end.p0(i64 4, ptr %16) #7
  %124 = load i32, ptr %12, align 4
  switch i32 %124, label %126 [
    i32 8, label %125
  ]

125:                                              ; preds = %123
  store i32 0, ptr %5, align 4
  store i32 1, ptr %12, align 4
  br label %126

126:                                              ; preds = %125, %123
  call void @llvm.lifetime.end.p0(i64 4, ptr %15) #7
  br label %127

127:                                              ; preds = %126, %78, %63
  call void @llvm.lifetime.end.p0(i64 8, ptr %14) #7
  call void @llvm.lifetime.end.p0(i64 8, ptr %13) #7
  br label %128

128:                                              ; preds = %127, %35
  call void @llvm.lifetime.end.p0(i64 8, ptr %11) #7
  call void @llvm.lifetime.end.p0(i64 8, ptr %10) #7
  %129 = load i32, ptr %5, align 4
  ret i32 %129
}