; Function Attrs: nofree norecurse nosync nounwind memory(argmem: read) uwtable
define hidden range(i32 0, 3) i32 @repeatHasMatchRange(ptr noundef readonly captures(none) %0, ptr noundef readonly captures(none) %1, ptr noundef readonly captures(none) %2, i64 noundef %3) local_unnamed_addr #2 {
  %5 = load i64, ptr %1, align 8
  %6 = sub i64 %3, %5
  %7 = getelementptr inbounds nuw i8, ptr %0, i64 4
  %8 = load i32, ptr %7, align 4
  %9 = zext i32 %8 to i64
  %10 = icmp ult i64 %6, %9
  br i1 %10, label %._crit_edge, label %11

11:                                               ; preds = %4
  %12 = getelementptr inbounds nuw i8, ptr %1, i64 8
  %13 = load i8, ptr %12, align 8
  %14 = zext i8 %13 to i64
  %15 = getelementptr inbounds nuw i16, ptr %2, i64 %14
  %16 = getelementptr inbounds i8, ptr %15, i64 -2
  %17 = load i16, ptr %16, align 1
  %18 = zext i16 %17 to i64
  %19 = add i64 %5, %18
  %20 = sub i64 %3, %19
  %21 = getelementptr inbounds nuw i8, ptr %0, i64 8
  %22 = load i32, ptr %21, align 4
  %23 = zext i32 %22 to i64
  %24 = icmp ugt i64 %20, %23
  br i1 %24, label %._crit_edge, label %25

25:                                               ; preds = %11
  %.not = icmp samesign ult i64 %20, %9
  br i1 %.not, label %26, label %._crit_edge

26:                                               ; preds = %25
  %27 = zext i8 %13 to i32
  %28 = add nsw i32 %27, -1
  %.not3843.not = icmp eq i32 %28, 0
  br i1 %.not3843.not, label %._crit_edge, label %.lr.ph

.lr.ph:                                           ; preds = %26
  %wide.trip.count = zext i32 %28 to i64
  br label %30

29:                                               ; preds = %30
  %indvars.iv.next = add nuw nsw i64 %indvars.iv, 1
  %exitcond.not = icmp eq i64 %indvars.iv.next, %wide.trip.count
  br i1 %exitcond.not, label %._crit_edge, label %30

30:                                               ; preds = %.lr.ph, %29
  %indvars.iv = phi i64 [ 0, %.lr.ph ], [ %indvars.iv.next, %29 ]
  %31 = getelementptr inbounds nuw i16, ptr %2, i64 %indvars.iv
  %32 = load i16, ptr %31, align 1
  %33 = zext i16 %32 to i64
  %34 = add i64 %5, %33
  %35 = sub i64 %3, %34
  %.not36 = icmp ult i64 %35, %9
  %.not37 = icmp ugt i64 %35, %23
  %or.cond = or i1 %.not36, %.not37
  br i1 %or.cond, label %29, label %._crit_edge

._crit_edge:                                      ; preds = %30, %29, %26, %11, %25, %4
  %.030 = phi i32 [ 0, %4 ], [ 2, %11 ], [ 1, %25 ], [ 0, %26 ], [ 1, %30 ], [ 0, %29 ]
  ret i32 %.030
}